target datalayout = "e-m:e-p270:32:32-p271:32:32-p272:64:64-i64:64-i128:128-f80:128-n8:16:32:64-S128"
target triple = "x86_64-pc-linux-gnu"

; Function Attrs: alwaysinline nounwind willreturn memory(none) uwtable
define internal i32 @av_clipl_int32_c(i64 noundef %0) #6 {
  %2 = alloca i32, align 4
  %3 = alloca i64, align 8
  store i64 %0, ptr %3, align 8, !tbaa !65
  %4 = load i64, ptr %3, align 8, !tbaa !65
  %5 = add i64 %4, 2147483648
  %6 = and i64 %5, -4294967296
  %7 = icmp ne i64 %6, 0
  br i1 %7, label %8, label %13

8:                                                ; preds = %1
  %9 = load i64, ptr %3, align 8, !tbaa !65
  %10 = ashr i64 %9, 63
  %11 = xor i64 %10, 2147483647
  %12 = trunc i64 %11 to i32
  store i32 %12, ptr %2, align 4
  br label %16

13:                                               ; preds = %1
  %14 = load i64, ptr %3, align 8, !tbaa !65
  %15 = trunc i64 %14 to i32
  store i32 %15, ptr %2, align 4
  br label %16

16:                                               ; preds = %13, %8
  %17 = load i32, ptr %2, align 4
  ret i32 %17
}

; Function Attrs: nounwind uwtable
define internal i32 @estimate_pitch(ptr noundef %0, i32 noundef %1) #1 {
  %3 = alloca ptr, align 8
  %4 = alloca i32, align 4
  %5 = alloca i32, align 4
  %6 = alloca i32, align 4
  %7 = alloca i32, align 4
  %8 = alloca i32, align 4
  %9 = alloca i32, align 4
  %10 = alloca i32, align 4
  %11 = alloca i32, align 4
  %12 = alloca i32, align 4
  %13 = alloca i32, align 4
  %14 = alloca i32, align 4
  %15 = alloca i32, align 4
  %16 = alloca i32, align 4
  %17 = alloca i32, align 4
  store ptr %0, ptr %3, align 8, !tbaa !51
  store i32 %1, ptr %4, align 4, !tbaa !44
  call void @llvm.lifetime.start.p0(i64 4, ptr %5) #9
  store i32 32, ptr %5, align 4, !tbaa !44
  call void @llvm.lifetime.start.p0(i64 4, ptr %6) #9
  store i32 16384, ptr %6, align 4, !tbaa !44
  call void @llvm.lifetime.start.p0(i64 4, ptr %7) #9
  store i32 32767, ptr %7, align 4, !tbaa !44
  call void @llvm.lifetime.start.p0(i64 4, ptr %8) #9
  store i32 18, ptr %8, align 4, !tbaa !44
  call void @llvm.lifetime.start.p0(i64 4, ptr %9) #9
  %18 = load i32, ptr %4, align 4, !tbaa !44
  %19 = sub nsw i32 %18, 18
  %20 = add nsw i32 %19, 1
  store i32 %20, ptr %9, align 4, !tbaa !44
  call void @llvm.lifetime.start.p0(i64 4, ptr %10) #9
  call void @llvm.lifetime.start.p0(i64 4, ptr %11) #9
  call void @llvm.lifetime.start.p0(i64 4, ptr %12) #9
  call void @llvm.lifetime.start.p0(i64 4, ptr %13) #9
  call void @llvm.lifetime.start.p0(i64 4, ptr %14) #9
  call void @llvm.lifetime.start.p0(i64 4, ptr %15) #9
  call void @llvm.lifetime.start.p0(i64 4, ptr %16) #9
  call void @llvm.lifetime.start.p0(i64 4, ptr %17) #9
  %21 = load ptr, ptr %3, align 8, !tbaa !51
  %22 = load i32, ptr %9, align 4, !tbaa !44
  %23 = sext i32 %22 to i64
  %24 = getelementptr inbounds i16, ptr %21, i64 %23
  %25 = load ptr, ptr %3, align 8, !tbaa !51
  %26 = load i32, ptr %9, align 4, !tbaa !44
  %27 = sext i32 %26 to i64
  %28 = getelementptr inbounds i16, ptr %25, i64 %27
  %29 = call i64 @ff_dot_product(ptr noundef %24, ptr noundef %28, i32 noundef 120)
  %30 = trunc i64 %29 to i32
  store i32 %30, ptr %12, align 4, !tbaa !44
  store i32 18, ptr %17, align 4, !tbaa !44
  br label %31

31:                                               ; preds = %174, %2
  %32 = load i32, ptr %17, align 4, !tbaa !44
  %33 = icmp sle i32 %32, 142
  br i1 %33, label %34, label %177

34:                                               ; preds = %31
  %35 = load i32, ptr %9, align 4, !tbaa !44
  %36 = add nsw i32 %35, -1
  store i32 %36, ptr %9, align 4, !tbaa !44
  %37 = load ptr, ptr %3, align 8, !tbaa !51
  %38 = load i32, ptr %9, align 4, !tbaa !44
  %39 = sext i32 %38 to i64
  %40 = getelementptr inbounds i16, ptr %37, i64 %39
  %41 = load i16, ptr %40, align 2, !tbaa !55
  %42 = sext i16 %41 to i32
  %43 = load ptr, ptr %3, align 8, !tbaa !51
  %44 = load i32, ptr %9, align 4, !tbaa !44
  %45 = sext i32 %44 to i64
  %46 = getelementptr inbounds i16, ptr %43, i64 %45
  %47 = load i16, ptr %46, align 2, !tbaa !55
  %48 = sext i16 %47 to i32
  %49 = mul nsw i32 %42, %48
  %50 = load ptr, ptr %3, align 8, !tbaa !51
  %51 = load i32, ptr %9, align 4, !tbaa !44
  %52 = add nsw i32 %51, 120
  %53 = sext i32 %52 to i64
  %54 = getelementptr inbounds i16, ptr %50, i64 %53
  %55 = load i16, ptr %54, align 2, !tbaa !55
  %56 = sext i16 %55 to i32
  %57 = load ptr, ptr %3, align 8, !tbaa !51
  %58 = load i32, ptr %9, align 4, !tbaa !44
  %59 = add nsw i32 %58, 120
  %60 = sext i32 %59 to i64
  %61 = getelementptr inbounds i16, ptr %57, i64 %60
  %62 = load i16, ptr %61, align 2, !tbaa !55
  %63 = sext i16 %62 to i32
  %64 = mul nsw i32 %56, %63
  %65 = sub nsw i32 %49, %64
  %66 = load i32, ptr %12, align 4, !tbaa !44
  %67 = add nsw i32 %66, %65
  store i32 %67, ptr %12, align 4, !tbaa !44
  %68 = load ptr, ptr %3, align 8, !tbaa !51
  %69 = load i32, ptr %4, align 4, !tbaa !44
  %70 = sext i32 %69 to i64
  %71 = getelementptr inbounds i16, ptr %68, i64 %70
  %72 = load ptr, ptr %3, align 8, !tbaa !51
  %73 = load i32, ptr %9, align 4, !tbaa !44
  %74 = sext i32 %73 to i64
  %75 = getelementptr inbounds i16, ptr %72, i64 %74
  %76 = call i64 @ff_dot_product(ptr noundef %71, ptr noundef %75, i32 noundef 120)
  %77 = trunc i64 %76 to i32
  store i32 %77, ptr %10, align 4, !tbaa !44
  %78 = load i32, ptr %10, align 4, !tbaa !44
  %79 = icmp sle i32 %78, 0
  br i1 %79, label %80, label %81

80:                                               ; preds = %34
  br label %174

81:                                               ; preds = %34
  %82 = load i32, ptr %10, align 4, !tbaa !44
  %83 = call i32 @ff_g723_1_normalize_bits(i32 noundef %82, i32 noundef 31)
  store i32 %83, ptr %14, align 4, !tbaa !44
  %84 = load i32, ptr %10, align 4, !tbaa !44
  %85 = load i32, ptr %14, align 4, !tbaa !44
  %86 = shl i32 %84, %85
  %87 = sext i32 %86 to i64
  %88 = add nsw i64 %87, 32768
  %89 = call i32 @av_clipl_int32_c(i64 noundef %88) #10
  %90 = ashr i32 %89, 16
  store i32 %90, ptr %10, align 4, !tbaa !44
  %91 = load i32, ptr %14, align 4, !tbaa !44
  %92 = shl i32 %91, 1
  store i32 %92, ptr %14, align 4, !tbaa !44
  %93 = load i32, ptr %10, align 4, !tbaa !44
  %94 = load i32, ptr %10, align 4, !tbaa !44
  %95 = mul nsw i32 %94, %93
  store i32 %95, ptr %10, align 4, !tbaa !44
  %96 = load i32, ptr %10, align 4, !tbaa !44
  %97 = call i32 @ff_g723_1_normalize_bits(i32 noundef %96, i32 noundef 31)
  store i32 %97, ptr %16, align 4, !tbaa !44
  %98 = load i32, ptr %10, align 4, !tbaa !44
  %99 = load i32, ptr %16, align 4, !tbaa !44
  %100 = shl i32 %98, %99
  %101 = ashr i32 %100, 16
  store i32 %101, ptr %10, align 4, !tbaa !44
  %102 = load i32, ptr %16, align 4, !tbaa !44
  %103 = load i32, ptr %14, align 4, !tbaa !44
  %104 = add nsw i32 %103, %102
  store i32 %104, ptr %14, align 4, !tbaa !44
  %105 = load i32, ptr %12, align 4, !tbaa !44
  %106 = call i32 @ff_g723_1_normalize_bits(i32 noundef %105, i32 noundef 31)
  store i32 %106, ptr %16, align 4, !tbaa !44
  %107 = load i32, ptr %12, align 4, !tbaa !44
  %108 = load i32, ptr %16, align 4, !tbaa !44
  %109 = shl i32 %107, %108
  %110 = sext i32 %109 to i64
  %111 = add nsw i64 %110, 32768
  %112 = call i32 @av_clipl_int32_c(i64 noundef %111) #10
  %113 = ashr i32 %112, 16
  store i32 %113, ptr %11, align 4, !tbaa !44
  %114 = load i32, ptr %16, align 4, !tbaa !44
  %115 = load i32, ptr %14, align 4, !tbaa !44
  %116 = sub nsw i32 %115, %114
  store i32 %116, ptr %14, align 4, !tbaa !44
  %117 = load i32, ptr %10, align 4, !tbaa !44
  %118 = load i32, ptr %11, align 4, !tbaa !44
  %119 = icmp sge i32 %117, %118
  br i1 %119, label %120, label %125

120:                                              ; preds = %81
  %121 = load i32, ptr %14, align 4, !tbaa !44
  %122 = add nsw i32 %121, -1
  store i32 %122, ptr %14, align 4, !tbaa !44
  %123 = load i32, ptr %10, align 4, !tbaa !44
  %124 = ashr i32 %123, 1
  store i32 %124, ptr %10, align 4, !tbaa !44
  br label %125

125:                                              ; preds = %120, %81
  %126 = load i32, ptr %14, align 4, !tbaa !44
  %127 = load i32, ptr %5, align 4, !tbaa !44
  %128 = icmp sgt i32 %126, %127
  br i1 %128, label %129, label %130

129:                                              ; preds = %125
  br label %174

130:                                              ; preds = %125
  %131 = load i32, ptr %14, align 4, !tbaa !44
  %132 = add nsw i32 %131, 1
  %133 = load i32, ptr %5, align 4, !tbaa !44
  %134 = icmp slt i32 %132, %133
  br i1 %134, label %135, label %136

135:                                              ; preds = %130
  br label %168

136:                                              ; preds = %130
  %137 = load i32, ptr %14, align 4, !tbaa !44
  %138 = add nsw i32 %137, 1
  %139 = load i32, ptr %5, align 4, !tbaa !44
  %140 = icmp eq i32 %138, %139
  br i1 %140, label %141, label %144

141:                                              ; preds = %136
  %142 = load i32, ptr %6, align 4, !tbaa !44
  %143 = ashr i32 %142, 1
  store i32 %143, ptr %16, align 4, !tbaa !44
  br label %146

144:                                              ; preds = %136
  %145 = load i32, ptr %6, align 4, !tbaa !44
  store i32 %145, ptr %16, align 4, !tbaa !44
  br label %146

146:                                              ; preds = %144, %141
  %147 = load i32, ptr %10, align 4, !tbaa !44
  %148 = load i32, ptr %7, align 4, !tbaa !44
  %149 = mul nsw i32 %147, %148
  store i32 %149, ptr %13, align 4, !tbaa !44
  %150 = load i32, ptr %13, align 4, !tbaa !44
  %151 = load i32, ptr %11, align 4, !tbaa !44
  %152 = load i32, ptr %16, align 4, !tbaa !44
  %153 = mul nsw i32 %151, %152
  %154 = sub nsw i32 %150, %153
  store i32 %154, ptr %15, align 4, !tbaa !44
  %155 = load i32, ptr %15, align 4, !tbaa !44
  %156 = icmp sgt i32 %155, 0
  br i1 %156, label %157, label %173

157:                                              ; preds = %146
  %158 = load i32, ptr %17, align 4, !tbaa !44
  %159 = load i32, ptr %8, align 4, !tbaa !44
  %160 = sub nsw i32 %158, %159
  %161 = icmp slt i32 %160, 18
  br i1 %161, label %167, label %162

162:                                              ; preds = %157
  %163 = load i32, ptr %15, align 4, !tbaa !44
  %164 = load i32, ptr %13, align 4, !tbaa !44
  %165 = ashr i32 %164, 2
  %166 = icmp sgt i32 %163, %165
  br i1 %166, label %167, label %173

167:                                              ; preds = %162, %157
  br label %168

168:                                              ; preds = %167, %135
  %169 = load i32, ptr %17, align 4, !tbaa !44
  store i32 %169, ptr %8, align 4, !tbaa !44
  %170 = load i32, ptr %14, align 4, !tbaa !44
  store i32 %170, ptr %5, align 4, !tbaa !44
  %171 = load i32, ptr %10, align 4, !tbaa !44
  store i32 %171, ptr %6, align 4, !tbaa !44
  %172 = load i32, ptr %11, align 4, !tbaa !44
  store i32 %172, ptr %7, align 4, !tbaa !44
  br label %173

173:                                              ; preds = %168, %162, %146
  br label %174

174:                                              ; preds = %173, %129, %80
  %175 = load i32, ptr %17, align 4, !tbaa !44
  %176 = add nsw i32 %175, 1
  store i32 %176, ptr %17, align 4, !tbaa !44
  br label %31, !llvm.loop !82

177:                                              ; preds = %31
  %178 = load i32, ptr %8, align 4, !tbaa !44
  call void @llvm.lifetime.end.p0(i64 4, ptr %17) #9
  call void @llvm.lifetime.end.p0(i64 4, ptr %16) #9
  call void @llvm.lifetime.end.p0(i64 4, ptr %15) #9
  call void @llvm.lifetime.end.p0(i64 4, ptr %14) #9
  call void @llvm.lifetime.end.p0(i64 4, ptr %13) #9
  call void @llvm.lifetime.end.p0(i64 4, ptr %12) #9
  call void @llvm.lifetime.end.p0(i64 4, ptr %11) #9
  call void @llvm.lifetime.end.p0(i64 4, ptr %10) #9
  call void @llvm.lifetime.end.p0(i64 4, ptr %9) #9
  call void @llvm.lifetime.end.p0(i64 4, ptr %8) #9
  call void @llvm.lifetime.end.p0(i64 4, ptr %7) #9
  call void @llvm.lifetime.end.p0(i64 4, ptr %6) #9
  call void @llvm.lifetime.end.p0(i64 4, ptr %5) #9
  ret i32 %178
}