; Function Attrs: nounwind uwtable
define internal fastcc i32 @estimate_pitch(ptr noundef nonnull %0, i32 noundef range(i32 145, 266) %1) unnamed_addr #1 {
  %3 = zext nneg i32 %1 to i64
  %4 = getelementptr i16, ptr %0, i64 %3
  %5 = getelementptr i8, ptr %4, i64 -34
  %6 = tail call i64 @ff_dot_product(ptr noundef nonnull %5, ptr noundef nonnull %5, i32 noundef 120) #8
  %7 = trunc i64 %6 to i32
  %invariant.gep = getelementptr i8, ptr %0, i64 238
  %8 = zext nneg i32 %1 to i64
  %9 = getelementptr inbounds nuw i16, ptr %0, i64 %8
  %10 = add nsw i64 %8, -17
  br label %11

11:                                               ; preds = %2, %65
  %indvars.iv = phi i64 [ %10, %2 ], [ %indvars.iv.next, %65 ]
  %.090 = phi i32 [ 18, %2 ], [ %66, %65 ]
  %.06589 = phi i32 [ 32, %2 ], [ %.1, %65 ]
  %.06788 = phi i32 [ 16384, %2 ], [ %.168, %65 ]
  %.06987 = phi i32 [ %7, %2 ], [ %18, %65 ]
  %.07086 = phi i32 [ 32767, %2 ], [ %.171, %65 ]
  %.07484 = phi i32 [ 18, %2 ], [ %.175, %65 ]
  %indvars.iv.next = add nsw i64 %indvars.iv, -1
  %12 = getelementptr inbounds i16, ptr %0, i64 %indvars.iv.next
  %13 = load i16, ptr %12, align 2, !tbaa !40
  %14 = sext i16 %13 to i32
  %gep = getelementptr i16, ptr %invariant.gep, i64 %indvars.iv
  %15 = load i16, ptr %gep, align 2, !tbaa !40
  %16 = sext i16 %15 to i32
  %add = add nsw i32 %16, %14
  %sub = sub nsw i32 %14, %16
  %17 = mul nsw i32 %add, %sub
  %18 = add nsw i32 %17, %.06987
  %19 = tail call i64 @ff_dot_product(ptr noundef nonnull %9, ptr noundef nonnull %12, i32 noundef 120) #8
  %20 = trunc i64 %19 to i32
  %21 = icmp slt i32 %20, 1
  br i1 %21, label %65, label %22

22:                                               ; preds = %11
  %23 = tail call i32 @ff_g723_1_normalize_bits(i32 noundef %20, i32 noundef 31) #8
  %24 = shl i32 %20, %23
  %25 = sext i32 %24 to i64
  %26 = add i32 %24, 32768
  %27 = add nsw i64 %25, 2147516416
  %.not.i = icmp samesign ult i64 %27, 4294967296
  %28 = icmp sgt i32 %24, -32769
  %29 = select i1 %28, i32 2147418112, i32 -2147483648
  %.0.i = select i1 %.not.i, i32 %26, i32 %29
  %30 = ashr i32 %.0.i, 16
  %31 = shl i32 %23, 1
  %32 = mul nsw i32 %30, %30
  %33 = tail call i32 @ff_g723_1_normalize_bits(i32 noundef %32, i32 noundef 31) #8
  %34 = shl i32 %32, %33
  %35 = ashr i32 %34, 16
  %36 = add nsw i32 %31, %33
  %37 = tail call i32 @ff_g723_1_normalize_bits(i32 noundef %18, i32 noundef 31) #8
  %38 = shl i32 %18, %37
  %39 = sext i32 %38 to i64
  %40 = add i32 %38, 32768
  %41 = add nsw i64 %39, 2147516416
  %.not.i82 = icmp samesign ult i64 %41, 4294967296
  %42 = icmp sgt i32 %38, -32769
  %43 = select i1 %42, i32 2147418112, i32 -2147483648
  %.0.i83 = select i1 %.not.i82, i32 %40, i32 %43
  %44 = ashr i32 %.0.i83, 16
  %45 = sub i32 %36, %37
  %.not = icmp sge i32 %35, %44
  %46 = ashr i32 %34, 17
  %.072 = select i1 %.not, i32 %46, i32 %35
  %47 = sext i1 %.not to i32
  %.066 = add nsw i32 %45, %47
  %48 = icmp sgt i32 %.066, %.06589
  br i1 %48, label %65, label %49

49:                                               ; preds = %22
  %50 = add nsw i32 %.066, 1
  %51 = icmp slt i32 %50, %.06589
  br i1 %51, label %64, label %52

52:                                               ; preds = %49
  %53 = icmp eq i32 %50, %.06589
  %54 = zext i1 %53 to i32
  %.064 = ashr i32 %.06788, %54
  %55 = mul nsw i32 %.072, %.07086
  %56 = mul nsw i32 %.064, %44
  %57 = sub nsw i32 %55, %56
  %58 = icmp sgt i32 %57, 0
  br i1 %58, label %59, label %65

59:                                               ; preds = %52
  %60 = sub nsw i32 %.090, %.07484
  %61 = icmp slt i32 %60, 18
  %62 = ashr i32 %55, 2
  %63 = icmp sgt i32 %57, %62
  %or.cond = or i1 %61, %63
  br i1 %or.cond, label %64, label %65

64:                                               ; preds = %59, %49
  br label %65

65:                                               ; preds = %59, %52, %64, %22, %11
  %.175 = phi i32 [ %.07484, %11 ], [ %.07484, %22 ], [ %.090, %64 ], [ %.07484, %52 ], [ %.07484, %59 ]
  %.171 = phi i32 [ %.07086, %11 ], [ %.07086, %22 ], [ %44, %64 ], [ %.07086, %52 ], [ %.07086, %59 ]
  %.168 = phi i32 [ %.06788, %11 ], [ %.06788, %22 ], [ %.072, %64 ], [ %.06788, %52 ], [ %.06788, %59 ]
  %.1 = phi i32 [ %.06589, %11 ], [ %.06589, %22 ], [ %.066, %64 ], [ %.06589, %52 ], [ %.06589, %59 ]
  %66 = add nuw nsw i32 %.090, 1
  %exitcond.not = icmp eq i32 %66, 143
  br i1 %exitcond.not, label %67, label %11, !llvm.loop !126

67:                                               ; preds = %65
  ret i32 %.175
}